; Function Attrs: nounwind uwtable
define hidden noundef zeroext i1 @je_decay_maybe_advance_epoch(ptr noundef %0, ptr noundef %1, i64 noundef %2) local_unnamed_addr #0 {
  %4 = alloca %struct.nstime_t, align 8
  %5 = load ptr, ptr @je_nstime_monotonic, align 8, !tbaa !17
  %6 = tail call zeroext i1 %5() #9
  br i1 %6, label %decay_maybe_update_time.exit, label %7

7:                                                ; preds = %3
  %8 = getelementptr inbounds nuw i8, ptr %0, i64 136
  %9 = tail call i32 @je_nstime_compare(ptr noundef nonnull %8, ptr noundef %1) #9
  %10 = icmp sgt i32 %9, 0
  br i1 %10, label %11, label %decay_maybe_update_time.exit, !prof !19

11:                                               ; preds = %7
  tail call void @je_nstime_copy(ptr noundef nonnull %8, ptr noundef %1) #9
  tail call fastcc void @decay_deadline_init(ptr noundef nonnull %0)
  br label %decay_maybe_update_time.exit

decay_maybe_update_time.exit:                     ; preds = %3, %7, %11
  %12 = getelementptr inbounds nuw i8, ptr %0, i64 152
  %13 = tail call i32 @je_nstime_compare(ptr noundef nonnull %12, ptr noundef %1) #9
  %14 = icmp slt i32 %13, 1
  br i1 %14, label %15, label %43

15:                                               ; preds = %decay_maybe_update_time.exit
  call void @llvm.lifetime.start.p0(i64 8, ptr nonnull %4) #9
  call void @je_nstime_copy(ptr noundef nonnull %4, ptr noundef %1) #9
  %16 = getelementptr inbounds nuw i8, ptr %0, i64 136
  call void @je_nstime_subtract(ptr noundef nonnull %4, ptr noundef nonnull %16) #9
  %17 = getelementptr inbounds nuw i8, ptr %0, i64 128
  %18 = call i64 @je_nstime_divide(ptr noundef nonnull %4, ptr noundef nonnull %17) #9
  call void @je_nstime_copy(ptr noundef nonnull %4, ptr noundef nonnull %17) #9
  call void @je_nstime_imultiply(ptr noundef nonnull %4, i64 noundef %18) #9
  call void @je_nstime_add(ptr noundef nonnull %16, ptr noundef nonnull %4) #9
  call fastcc void @decay_deadline_init(ptr noundef nonnull %0)
  %19 = icmp ugt i64 %18, 199
  %20 = getelementptr inbounds nuw i8, ptr %0, i64 176
  br i1 %19, label %21, label %22

21:                                               ; preds = %15
  call void @llvm.memset.p0.i64(ptr noundef nonnull align 8 dereferenceable(1592) %20, i8 0, i64 1592, i1 false)
  br label %decay_backlog_update.exit

22:                                               ; preds = %15
  %23 = getelementptr inbounds nuw [200 x i64], ptr %20, i64 0, i64 %18
  %24 = sub nuw nsw i64 200, %18
  %25 = shl nuw nsw i64 %24, 3
  call void @llvm.memmove.p0.p0.i64(ptr nonnull align 8 %20, ptr nonnull align 8 %23, i64 %25, i1 false)
  %26 = icmp samesign ugt i64 %18, 1
  br i1 %26, label %27, label %decay_backlog_update.exit

27:                                               ; preds = %22
  %28 = getelementptr inbounds nuw [200 x i64], ptr %20, i64 0, i64 %24
  %29 = shl nuw nsw i64 %18, 3
  %30 = add nsw i64 %29, -8
  call void @llvm.memset.p0.i64(ptr nonnull align 8 %28, i8 0, i64 %30, i1 false)
  br label %decay_backlog_update.exit

decay_backlog_update.exit:                        ; preds = %21, %22, %27
  %31 = getelementptr inbounds nuw i8, ptr %0, i64 168
  %32 = load i64, ptr %31, align 8, !tbaa !20
  %spec.select.i = call i64 @llvm.usub.sat.i64(i64 %2, i64 %32)
  %33 = getelementptr inbounds nuw i8, ptr %0, i64 1768
  store i64 %spec.select.i, ptr %33, align 8, !tbaa !13
  br label %34

34:                                               ; preds = %34, %decay_backlog_update.exit
  %indvars.iv.i = phi i64 [ 0, %decay_backlog_update.exit ], [ %indvars.iv.next.i, %34 ]
  %.09.i = phi i64 [ 0, %decay_backlog_update.exit ], [ %40, %34 ]
  %35 = getelementptr inbounds nuw [200 x i64], ptr %20, i64 0, i64 %indvars.iv.i
  %36 = load i64, ptr %35, align 8, !tbaa !13
  %37 = getelementptr inbounds nuw [200 x i64], ptr @h_steps, i64 0, i64 %indvars.iv.i
  %38 = load i64, ptr %37, align 8, !tbaa !13
  %39 = mul i64 %38, %36
  %40 = add i64 %39, %.09.i
  %indvars.iv.next.i = add nuw nsw i64 %indvars.iv.i, 1
  %exitcond.not.i = icmp eq i64 %indvars.iv.next.i, 200
  br i1 %exitcond.not.i, label %decay_backlog_npages_limit.exit, label %34, !llvm.loop !21

decay_backlog_npages_limit.exit:                  ; preds = %34
  %41 = lshr i64 %40, 24
  %42 = getelementptr inbounds nuw i8, ptr %0, i64 160
  store i64 %41, ptr %42, align 8, !tbaa !22
  %. = call i64 @llvm.umax.i64(i64 %41, i64 %2)
  store i64 %., ptr %31, align 8, !tbaa !20
  call void @llvm.lifetime.end.p0(i64 8, ptr nonnull %4) #9
  br label %43

43:                                               ; preds = %decay_maybe_update_time.exit, %decay_backlog_npages_limit.exit
  ret i1 %14
}